target datalayout = "e-m:e-p270:32:32-p271:32:32-p272:64:64-i64:64-i128:128-f80:128-n8:16:32:64-S128"
target triple = "x86_64-pc-linux-gnu"

%"class.boost::urls::authority_view" = type { ptr, %"struct.boost::urls::detail::url_impl" }
%"struct.boost::urls::detail::url_impl" = type <{ ptr, [8 x i64], [7 x i64], i64, i64, [16 x i8], i16, [2 x i8], i32, i16, i8, [5 x i8] }>
%"class.boost::core::basic_string_view" = type { ptr, i64 }
%"class.boost::urls::pct_string_view" = type { %"class.boost::urls::grammar::string_view_base", i64 }
%"class.boost::urls::grammar::string_view_base" = type { %"class.boost::core::basic_string_view" }

; Function Attrs: mustprogress nounwind uwtable
define linkonce_odr hidden void @_ZN5boost4core17basic_string_viewIcEC2EPKcm(ptr noundef nonnull align 8 dereferenceable(16) %0, ptr noundef %1, i64 noundef %2) unnamed_addr #2 comdat align 2 {
  %4 = alloca ptr, align 8
  %5 = alloca ptr, align 8
  %6 = alloca i64, align 8
  store ptr %0, ptr %4, align 8, !tbaa !7
  store ptr %1, ptr %5, align 8, !tbaa !7
  store i64 %2, ptr %6, align 8, !tbaa !24
  %7 = load ptr, ptr %4, align 8
  %8 = getelementptr inbounds nuw %"class.boost::core::basic_string_view", ptr %7, i32 0, i32 0
  %9 = load ptr, ptr %5, align 8, !tbaa !7
  store ptr %9, ptr %8, align 8, !tbaa !40
  %10 = getelementptr inbounds nuw %"class.boost::core::basic_string_view", ptr %7, i32 0, i32 1
  %11 = load i64, ptr %6, align 8, !tbaa !24
  store i64 %11, ptr %10, align 8, !tbaa !38
  ret void
}

; Function Attrs: mustprogress nounwind uwtable
define linkonce_odr hidden void @_ZN5boost4urls7grammar16string_view_baseC2EPKcm(ptr noundef nonnull align 8 dereferenceable(16) %0, ptr noundef %1, i64 noundef %2) unnamed_addr #2 comdat align 2 {
  %4 = alloca ptr, align 8
  %5 = alloca ptr, align 8
  %6 = alloca i64, align 8
  store ptr %0, ptr %4, align 8, !tbaa !7
  store ptr %1, ptr %5, align 8, !tbaa !7
  store i64 %2, ptr %6, align 8, !tbaa !24
  %7 = load ptr, ptr %4, align 8
  %8 = getelementptr inbounds nuw %"class.boost::urls::grammar::string_view_base", ptr %7, i32 0, i32 0
  %9 = load ptr, ptr %5, align 8, !tbaa !7
  %10 = load i64, ptr %6, align 8, !tbaa !24
  call void @_ZN5boost4core17basic_string_viewIcEC2EPKcm(ptr noundef nonnull align 8 dereferenceable(16) %8, ptr noundef %9, i64 noundef %10) #19
  ret void
}

; Function Attrs: mustprogress nounwind uwtable
define linkonce_odr hidden void @_ZN5boost4urls15pct_string_viewC2EPKcmm(ptr noundef nonnull align 8 dereferenceable(24) %0, ptr noundef %1, i64 noundef %2, i64 noundef %3) unnamed_addr #2 comdat align 2 {
  %5 = alloca ptr, align 8
  %6 = alloca ptr, align 8
  %7 = alloca i64, align 8
  %8 = alloca i64, align 8
  store ptr %0, ptr %5, align 8, !tbaa !7
  store ptr %1, ptr %6, align 8, !tbaa !7
  store i64 %2, ptr %7, align 8, !tbaa !24
  store i64 %3, ptr %8, align 8, !tbaa !24
  %9 = load ptr, ptr %5, align 8
  %10 = load ptr, ptr %6, align 8, !tbaa !7
  %11 = load i64, ptr %7, align 8, !tbaa !24
  call void @_ZN5boost4urls7grammar16string_view_baseC2EPKcm(ptr noundef nonnull align 8 dereferenceable(16) %9, ptr noundef %10, i64 noundef %11) #19
  %12 = getelementptr inbounds nuw %"class.boost::urls::pct_string_view", ptr %9, i32 0, i32 1
  %13 = load i64, ptr %8, align 8, !tbaa !24
  store i64 %13, ptr %12, align 8, !tbaa !45
  ret void
}

; Function Attrs: inlinehint mustprogress nounwind uwtable
define linkonce_odr hidden void @_ZN5boost4urls27make_pct_string_view_unsafeEPKcmm(ptr dead_on_unwind noalias writable sret(%"class.boost::urls::pct_string_view") align 8 %0, ptr noundef %1, i64 noundef %2, i64 noundef %3) #1 comdat {
  %5 = alloca ptr, align 8
  %6 = alloca i64, align 8
  %7 = alloca i64, align 8
  store ptr %1, ptr %5, align 8, !tbaa !7
  store i64 %2, ptr %6, align 8, !tbaa !24
  store i64 %3, ptr %7, align 8, !tbaa !24
  %8 = load ptr, ptr %5, align 8, !tbaa !7
  %9 = load i64, ptr %6, align 8, !tbaa !24
  %10 = load i64, ptr %7, align 8, !tbaa !24
  call void @_ZN5boost4urls15pct_string_viewC2EPKcmm(ptr noundef nonnull align 8 dereferenceable(24) %0, ptr noundef %8, i64 noundef %9, i64 noundef %10) #19
  ret void
}

; Function Attrs: mustprogress nounwind uwtable
define noundef zeroext i1 @_ZNK5boost4urls14authority_view12has_passwordEv(ptr noundef nonnull align 8 dereferenceable(184) %0) #2 align 2 {
  %2 = alloca i1, align 1
  %3 = alloca ptr, align 8
  %4 = alloca i64, align 8
  %5 = alloca i32, align 4
  store ptr %0, ptr %3, align 8, !tbaa !7
  %6 = load ptr, ptr %3, align 8
  call void @llvm.lifetime.start.p0(i64 8, ptr %4) #19
  %7 = getelementptr inbounds nuw %"class.boost::urls::authority_view", ptr %6, i32 0, i32 1
  %8 = call noundef i64 @_ZNK5boost4urls6detail8url_impl3lenEi(ptr noundef nonnull align 8 dereferenceable(171) %7, i32 noundef 1) #19
  store i64 %8, ptr %4, align 8, !tbaa !24
  %9 = load i64, ptr %4, align 8, !tbaa !24
  %10 = icmp ugt i64 %9, 1
  br i1 %10, label %11, label %12

11:                                               ; preds = %1
  store i1 true, ptr %2, align 1
  store i32 1, ptr %5, align 4
  br label %13

12:                                               ; preds = %1
  store i1 false, ptr %2, align 1
  store i32 1, ptr %5, align 4
  br label %13

13:                                               ; preds = %12, %11
  call void @llvm.lifetime.end.p0(i64 8, ptr %4) #19
  %14 = load i1, ptr %2, align 1
  ret i1 %14
}

; Function Attrs: mustprogress nounwind uwtable
define linkonce_odr hidden noundef i64 @_ZNK5boost4core17basic_string_viewIcE4sizeEv(ptr noundef nonnull align 8 dereferenceable(16) %0) #2 comdat align 2 {
  %2 = alloca ptr, align 8
  store ptr %0, ptr %2, align 8, !tbaa !7
  %3 = load ptr, ptr %2, align 8
  %4 = getelementptr inbounds nuw %"class.boost::core::basic_string_view", ptr %3, i32 0, i32 1
  %5 = load i64, ptr %4, align 8, !tbaa !38
  ret i64 %5
}

; Function Attrs: mustprogress nounwind uwtable
define linkonce_odr hidden noundef ptr @_ZNK5boost4core17basic_string_viewIcE4dataEv(ptr noundef nonnull align 8 dereferenceable(16) %0) #2 comdat align 2 {
  %2 = alloca ptr, align 8
  store ptr %0, ptr %2, align 8, !tbaa !7
  %3 = load ptr, ptr %2, align 8
  %4 = getelementptr inbounds nuw %"class.boost::core::basic_string_view", ptr %3, i32 0, i32 0
  %5 = load ptr, ptr %4, align 8, !tbaa !40
  ret ptr %5
}

; Function Attrs: mustprogress nounwind uwtable
define linkonce_odr hidden void @_ZN5boost4core17basic_string_viewIcE13remove_suffixEm(ptr noundef nonnull align 8 dereferenceable(16) %0, i64 noundef %1) #2 comdat align 2 {
  %3 = alloca ptr, align 8
  %4 = alloca i64, align 8
  store ptr %0, ptr %3, align 8, !tbaa !7
  store i64 %1, ptr %4, align 8, !tbaa !24
  %5 = load ptr, ptr %3, align 8
  %6 = load i64, ptr %4, align 8, !tbaa !24
  %7 = getelementptr inbounds nuw %"class.boost::core::basic_string_view", ptr %5, i32 0, i32 1
  %8 = load i64, ptr %7, align 8, !tbaa !38
  %9 = sub i64 %8, %6
  store i64 %9, ptr %7, align 8, !tbaa !38
  ret void
}

; Function Attrs: mustprogress nounwind uwtable
define linkonce_odr hidden noundef zeroext i1 @_ZNK5boost4core17basic_string_viewIcE5emptyEv(ptr noundef nonnull align 8 dereferenceable(16) %0) #2 comdat align 2 {
  %2 = alloca ptr, align 8
  store ptr %0, ptr %2, align 8, !tbaa !7
  %3 = load ptr, ptr %2, align 8
  %4 = getelementptr inbounds nuw %"class.boost::core::basic_string_view", ptr %3, i32 0, i32 1
  %5 = load i64, ptr %4, align 8, !tbaa !38
  %6 = icmp eq i64 %5, 0
  ret i1 %6
}

; Function Attrs: mustprogress nounwind uwtable
define void @_ZNK5boost4urls14authority_view16encoded_userinfoEv(ptr dead_on_unwind noalias writable sret(%"class.boost::urls::pct_string_view") align 8 %0, ptr noundef nonnull align 8 dereferenceable(184) %1) #2 align 2 personality ptr @__gxx_personality_v0 {
  %3 = alloca ptr, align 8
  %4 = alloca %"class.boost::core::basic_string_view", align 8
  %5 = alloca %"class.boost::core::basic_string_view", align 8
  %6 = alloca i32, align 4
  store ptr %1, ptr %3, align 8, !tbaa !7
  %7 = load ptr, ptr %3, align 8
  call void @llvm.lifetime.start.p0(i64 16, ptr %4) #19
  %8 = getelementptr inbounds nuw %"class.boost::urls::authority_view", ptr %7, i32 0, i32 1
  %9 = call { ptr, i64 } @_ZNK5boost4urls6detail8url_impl3getEii(ptr noundef nonnull align 8 dereferenceable(171) %8, i32 noundef 0, i32 noundef 2) #19
  %10 = getelementptr inbounds nuw { ptr, i64 }, ptr %4, i32 0, i32 0
  %11 = extractvalue { ptr, i64 } %9, 0
  store ptr %11, ptr %10, align 8
  %12 = getelementptr inbounds nuw { ptr, i64 }, ptr %4, i32 0, i32 1
  %13 = extractvalue { ptr, i64 } %9, 1
  store i64 %13, ptr %12, align 8
  %14 = call noundef zeroext i1 @_ZNK5boost4core17basic_string_viewIcE5emptyEv(ptr noundef nonnull align 8 dereferenceable(16) %4) #19
  br i1 %14, label %15, label %21

15:                                               ; preds = %2
  call void @llvm.memcpy.p0.p0.i64(ptr align 8 %5, ptr align 8 %4, i64 16, i1 false), !tbaa.struct !32
  %16 = getelementptr inbounds nuw { ptr, i64 }, ptr %5, i32 0, i32 0
  %17 = load ptr, ptr %16, align 8
  %18 = getelementptr inbounds nuw { ptr, i64 }, ptr %5, i32 0, i32 1
  %19 = load i64, ptr %18, align 8
  invoke void @_ZN5boost4urls15pct_string_viewC1ENS_4core17basic_string_viewIcEE(ptr noundef nonnull align 8 dereferenceable(24) %0, ptr %17, i64 %19)
          to label %20 unwind label %37

20:                                               ; preds = %15
  store i32 1, ptr %6, align 4
  br label %36

21:                                               ; preds = %2
  call void @_ZN5boost4core17basic_string_viewIcE13remove_suffixEm(ptr noundef nonnull align 8 dereferenceable(16) %4, i64 noundef 1) #19
  %22 = call noundef ptr @_ZNK5boost4core17basic_string_viewIcE4dataEv(ptr noundef nonnull align 8 dereferenceable(16) %4) #19
  %23 = call noundef i64 @_ZNK5boost4core17basic_string_viewIcE4sizeEv(ptr noundef nonnull align 8 dereferenceable(16) %4) #19
  %24 = getelementptr inbounds nuw %"class.boost::urls::authority_view", ptr %7, i32 0, i32 1
  %25 = getelementptr inbounds nuw %"struct.boost::urls::detail::url_impl", ptr %24, i32 0, i32 2
  %26 = getelementptr inbounds [7 x i64], ptr %25, i64 0, i64 0
  %27 = load i64, ptr %26, align 8, !tbaa !24
  %28 = getelementptr inbounds nuw %"class.boost::urls::authority_view", ptr %7, i32 0, i32 1
  %29 = getelementptr inbounds nuw %"struct.boost::urls::detail::url_impl", ptr %28, i32 0, i32 2
  %30 = getelementptr inbounds [7 x i64], ptr %29, i64 0, i64 1
  %31 = load i64, ptr %30, align 8, !tbaa !24
  %32 = add i64 %27, %31
  %33 = call noundef zeroext i1 @_ZNK5boost4urls14authority_view12has_passwordEv(ptr noundef nonnull align 8 dereferenceable(184) %7) #19
  %34 = zext i1 %33 to i64
  %35 = add i64 %32, %34
  call void @_ZN5boost4urls27make_pct_string_view_unsafeEPKcmm(ptr dead_on_unwind writable sret(%"class.boost::urls::pct_string_view") align 8 %0, ptr noundef %22, i64 noundef %23, i64 noundef %35) #19
  store i32 1, ptr %6, align 4
  br label %36

36:                                               ; preds = %21, %20
  call void @llvm.lifetime.end.p0(i64 16, ptr %4) #19
  ret void

37:                                               ; preds = %15
  %38 = landingpad { ptr, i32 }
          catch ptr null
  %39 = extractvalue { ptr, i32 } %38, 0
  call void @__clang_call_terminate(ptr %39) #20
  unreachable
}