; Function Attrs: mustprogress nounwind uwtable
define void @_ZNK5boost4urls14authority_view16encoded_userinfoEv(ptr dead_on_unwind noalias writable sret(%"class.boost::urls::pct_string_view") align 8 %0, ptr noundef nonnull align 8 dereferenceable(184) %1) local_unnamed_addr #3 align 2 personality ptr @__gxx_personality_v0 {
  %3 = getelementptr inbounds nuw i8, ptr %1, i64 8
  %4 = tail call { ptr, i64 } @_ZNK5boost4urls6detail8url_impl3getEii(ptr noundef nonnull align 8 dereferenceable(171) %3, i32 noundef 0, i32 noundef 2) #28
  %5 = extractvalue { ptr, i64 } %4, 0
  %6 = extractvalue { ptr, i64 } %4, 1
  %7 = icmp eq i64 %6, 0
  br i1 %7, label %8, label %9

8:                                                ; preds = %2
  invoke void @_ZN5boost4urls15pct_string_viewC1ENS_4core17basic_string_viewIcEE(ptr noundef nonnull align 8 dereferenceable(24) %0, ptr %5, i64 0)
          to label %22 unwind label %23

9:                                                ; preds = %2
  %10 = add i64 %6, -1
  %11 = getelementptr inbounds nuw i8, ptr %1, i64 80
  %12 = load i64, ptr %11, align 8, !tbaa !38
  %13 = getelementptr inbounds i8, ptr %1, i64 88
  %14 = load i64, ptr %13, align 8, !tbaa !38
  %15 = add i64 %14, %12
  %16 = tail call noundef i64 @_ZNK5boost4urls6detail8url_impl3lenEi(ptr noundef nonnull align 8 dereferenceable(171) %3, i32 noundef 1) #28
  %17 = icmp ugt i64 %16, 1
  %18 = zext i1 %17 to i64
  %19 = add i64 %15, %18
  store ptr %5, ptr %0, align 8, !tbaa !54, !alias.scope !56
  %20 = getelementptr inbounds nuw i8, ptr %0, i64 8
  store i64 %10, ptr %20, align 8, !tbaa !59, !alias.scope !56
  %21 = getelementptr inbounds nuw i8, ptr %0, i64 16
  store i64 %19, ptr %21, align 8, !tbaa !60, !alias.scope !56
  br label %22

22:                                               ; preds = %8, %9
  ret void

23:                                               ; preds = %8
  %24 = landingpad { ptr, i32 }
          catch ptr null
  %25 = extractvalue { ptr, i32 } %24, 0
  tail call void @__clang_call_terminate(ptr %25) #29
  unreachable
}